target datalayout = "e-m:e-p270:32:32-p271:32:32-p272:64:64-i64:64-i128:128-f80:128-n8:16:32:64-S128"
target triple = "x86_64-pc-linux-gnu"

%struct.ExprEvalStep = type { i64, ptr, ptr, %union.anon }
%union.anon = type { %struct.anon.23 }
%struct.anon.23 = type { ptr, ptr, i32, i32, ptr, ptr }
%struct.ExprState = type { i32, i8, i8, i64, ptr, ptr, ptr, ptr, ptr, i32, i32, ptr, ptr, ptr, ptr, ptr, ptr, ptr }
%struct.ForBothState = type { ptr, ptr, i32 }
%struct.Expr = type { i32 }
%struct.anon.11 = type { i32, i32 }
%struct.PlanState = type { i32, ptr, ptr, ptr, ptr, ptr, ptr, ptr, ptr, ptr, ptr, ptr, ptr, ptr, ptr, ptr, ptr, ptr, i8, ptr, ptr, ptr, ptr, ptr, i8, i8, i8, i8, i8, i8, i8, i8 }
%struct.List = type { i32, i32, i32, ptr, [0 x %union.ListCell] }
%union.ListCell = type { ptr }
%struct.SubPlan = type { %struct.Expr, i32, ptr, ptr, i32, ptr, i32, i32, i32, i8, i8, i8, ptr, ptr, ptr, double, double }
%struct.anon.39 = type { ptr }

@.str.1 = private unnamed_addr constant [11 x i8] c"execExpr.c\00", align 1
@.str.27 = private unnamed_addr constant [34 x i8] c"SubPlan found with no parent plan\00", align 1
@__func__.ExecInitSubPlanExpr = private unnamed_addr constant [20 x i8] c"ExecInitSubPlanExpr\00", align 1

; Function Attrs: nounwind uwtable
define dso_local void @ExprEvalPushStep(ptr noundef %0, ptr noundef %1) #0 {
  %3 = alloca ptr, align 8
  %4 = alloca ptr, align 8
  store ptr %0, ptr %3, align 8
  store ptr %1, ptr %4, align 8
  %5 = load ptr, ptr %3, align 8
  %6 = getelementptr inbounds nuw %struct.ExprState, ptr %5, i32 0, i32 10
  %7 = load i32, ptr %6, align 4
  %8 = icmp eq i32 %7, 0
  br i1 %8, label %9, label %20

9:                                                ; preds = %2
  %10 = load ptr, ptr %3, align 8
  %11 = getelementptr inbounds nuw %struct.ExprState, ptr %10, i32 0, i32 10
  store i32 16, ptr %11, align 4
  %12 = load ptr, ptr %3, align 8
  %13 = getelementptr inbounds nuw %struct.ExprState, ptr %12, i32 0, i32 10
  %14 = load i32, ptr %13, align 4
  %15 = sext i32 %14 to i64
  %16 = mul i64 64, %15
  %17 = call ptr @palloc(i64 noundef %16)
  %18 = load ptr, ptr %3, align 8
  %19 = getelementptr inbounds nuw %struct.ExprState, ptr %18, i32 0, i32 5
  store ptr %17, ptr %19, align 8
  br label %45

20:                                               ; preds = %2
  %21 = load ptr, ptr %3, align 8
  %22 = getelementptr inbounds nuw %struct.ExprState, ptr %21, i32 0, i32 10
  %23 = load i32, ptr %22, align 4
  %24 = load ptr, ptr %3, align 8
  %25 = getelementptr inbounds nuw %struct.ExprState, ptr %24, i32 0, i32 9
  %26 = load i32, ptr %25, align 8
  %27 = icmp eq i32 %23, %26
  br i1 %27, label %28, label %44

28:                                               ; preds = %20
  %29 = load ptr, ptr %3, align 8
  %30 = getelementptr inbounds nuw %struct.ExprState, ptr %29, i32 0, i32 10
  %31 = load i32, ptr %30, align 4
  %32 = mul i32 %31, 2
  store i32 %32, ptr %30, align 4
  %33 = load ptr, ptr %3, align 8
  %34 = getelementptr inbounds nuw %struct.ExprState, ptr %33, i32 0, i32 5
  %35 = load ptr, ptr %34, align 8
  %36 = load ptr, ptr %3, align 8
  %37 = getelementptr inbounds nuw %struct.ExprState, ptr %36, i32 0, i32 10
  %38 = load i32, ptr %37, align 4
  %39 = sext i32 %38 to i64
  %40 = mul i64 64, %39
  %41 = call ptr @repalloc(ptr noundef %35, i64 noundef %40)
  %42 = load ptr, ptr %3, align 8
  %43 = getelementptr inbounds nuw %struct.ExprState, ptr %42, i32 0, i32 5
  store ptr %41, ptr %43, align 8
  br label %44

44:                                               ; preds = %28, %20
  br label %45

45:                                               ; preds = %44, %9
  %46 = load ptr, ptr %3, align 8
  %47 = getelementptr inbounds nuw %struct.ExprState, ptr %46, i32 0, i32 5
  %48 = load ptr, ptr %47, align 8
  %49 = load ptr, ptr %3, align 8
  %50 = getelementptr inbounds nuw %struct.ExprState, ptr %49, i32 0, i32 9
  %51 = load i32, ptr %50, align 8
  %52 = add i32 %51, 1
  store i32 %52, ptr %50, align 8
  %53 = sext i32 %51 to i64
  %54 = getelementptr inbounds %struct.ExprEvalStep, ptr %48, i64 %53
  %55 = load ptr, ptr %4, align 8
  call void @llvm.memcpy.p0.p0.i64(ptr align 8 %54, ptr align 8 %55, i64 64, i1 false)
  ret void
}

; Function Attrs: nounwind uwtable
define internal void @ExecInitSubPlanExpr(ptr noundef %0, ptr noundef %1, ptr noundef %2, ptr noundef %3) #0 {
  %5 = alloca ptr, align 8
  %6 = alloca ptr, align 8
  %7 = alloca ptr, align 8
  %8 = alloca ptr, align 8
  %9 = alloca %struct.ExprEvalStep, align 8
  %10 = alloca ptr, align 8
  %11 = alloca ptr, align 8
  %12 = alloca ptr, align 8
  %13 = alloca %struct.ForBothState, align 8
  %14 = alloca i32, align 4
  %15 = alloca ptr, align 8
  store ptr %0, ptr %5, align 8
  store ptr %1, ptr %6, align 8
  store ptr %2, ptr %7, align 8
  store ptr %3, ptr %8, align 8
  call void @llvm.lifetime.start.p0(i64 64, ptr %9) #8
  call void @llvm.memset.p0.i64(ptr align 8 %9, i8 0, i64 64, i1 false)
  call void @llvm.lifetime.start.p0(i64 8, ptr %10) #8
  call void @llvm.lifetime.start.p0(i64 8, ptr %11) #8
  call void @llvm.lifetime.start.p0(i64 8, ptr %12) #8
  %16 = load ptr, ptr %6, align 8
  %17 = getelementptr inbounds nuw %struct.ExprState, ptr %16, i32 0, i32 11
  %18 = load ptr, ptr %17, align 8
  %19 = icmp ne ptr %18, null
  br i1 %19, label %31, label %20

20:                                               ; preds = %4
  br label %21

21:                                               ; preds = %20
  br i1 true, label %22, label %24

22:                                               ; preds = %21
  %23 = call zeroext i1 @errstart_cold(i32 noundef 21, ptr noundef null) #9
  br i1 %23, label %26, label %28

24:                                               ; preds = %21
  %25 = call zeroext i1 @errstart(i32 noundef 21, ptr noundef null)
  br i1 %25, label %26, label %28

26:                                               ; preds = %24, %22
  %27 = call i32 (ptr, ...) @errmsg_internal(ptr noundef @.str.27)
  call void @errfinish(ptr noundef @.str.1, i32 noundef 2823, ptr noundef @__func__.ExecInitSubPlanExpr)
  br label %28

28:                                               ; preds = %26, %24, %22
  unreachable

29:                                               ; No predecessors!
  br label %30

30:                                               ; preds = %29
  br label %31

31:                                               ; preds = %30, %4
  call void @llvm.lifetime.start.p0(i64 24, ptr %13) #8
  %32 = getelementptr inbounds nuw %struct.ForBothState, ptr %13, i32 0, i32 0
  %33 = load ptr, ptr %5, align 8
  %34 = getelementptr inbounds nuw %struct.SubPlan, ptr %33, i32 0, i32 13
  %35 = load ptr, ptr %34, align 8
  store ptr %35, ptr %32, align 8
  %36 = getelementptr inbounds nuw %struct.ForBothState, ptr %13, i32 0, i32 1
  %37 = load ptr, ptr %5, align 8
  %38 = getelementptr inbounds nuw %struct.SubPlan, ptr %37, i32 0, i32 14
  %39 = load ptr, ptr %38, align 8
  store ptr %39, ptr %36, align 8
  %40 = getelementptr inbounds nuw %struct.ForBothState, ptr %13, i32 0, i32 2
  store i32 0, ptr %40, align 8
  %41 = getelementptr i8, ptr %13, i64 20
  call void @llvm.memset.p0.i64(ptr align 4 %41, i8 0, i64 4, i1 false)
  br label %42

42:                                               ; preds = %117, %31
  %43 = getelementptr inbounds nuw %struct.ForBothState, ptr %13, i32 0, i32 0
  %44 = load ptr, ptr %43, align 8
  %45 = icmp ne ptr %44, null
  br i1 %45, label %46, label %63

46:                                               ; preds = %42
  %47 = getelementptr inbounds nuw %struct.ForBothState, ptr %13, i32 0, i32 2
  %48 = load i32, ptr %47, align 8
  %49 = getelementptr inbounds nuw %struct.ForBothState, ptr %13, i32 0, i32 0
  %50 = load ptr, ptr %49, align 8
  %51 = getelementptr inbounds nuw %struct.List, ptr %50, i32 0, i32 1
  %52 = load i32, ptr %51, align 4
  %53 = icmp slt i32 %48, %52
  br i1 %53, label %54, label %63

54:                                               ; preds = %46
  %55 = getelementptr inbounds nuw %struct.ForBothState, ptr %13, i32 0, i32 0
  %56 = load ptr, ptr %55, align 8
  %57 = getelementptr inbounds nuw %struct.List, ptr %56, i32 0, i32 3
  %58 = load ptr, ptr %57, align 8
  %59 = getelementptr inbounds nuw %struct.ForBothState, ptr %13, i32 0, i32 2
  %60 = load i32, ptr %59, align 8
  %61 = sext i32 %60 to i64
  %62 = getelementptr inbounds %union.ListCell, ptr %58, i64 %61
  br label %64

63:                                               ; preds = %46, %42
  br label %64

64:                                               ; preds = %63, %54
  %65 = phi ptr [ %62, %54 ], [ null, %63 ]
  store ptr %65, ptr %12, align 8
  %66 = getelementptr inbounds nuw %struct.ForBothState, ptr %13, i32 0, i32 1
  %67 = load ptr, ptr %66, align 8
  %68 = icmp ne ptr %67, null
  br i1 %68, label %69, label %86

69:                                               ; preds = %64
  %70 = getelementptr inbounds nuw %struct.ForBothState, ptr %13, i32 0, i32 2
  %71 = load i32, ptr %70, align 8
  %72 = getelementptr inbounds nuw %struct.ForBothState, ptr %13, i32 0, i32 1
  %73 = load ptr, ptr %72, align 8
  %74 = getelementptr inbounds nuw %struct.List, ptr %73, i32 0, i32 1
  %75 = load i32, ptr %74, align 4
  %76 = icmp slt i32 %71, %75
  br i1 %76, label %77, label %86

77:                                               ; preds = %69
  %78 = getelementptr inbounds nuw %struct.ForBothState, ptr %13, i32 0, i32 1
  %79 = load ptr, ptr %78, align 8
  %80 = getelementptr inbounds nuw %struct.List, ptr %79, i32 0, i32 3
  %81 = load ptr, ptr %80, align 8
  %82 = getelementptr inbounds nuw %struct.ForBothState, ptr %13, i32 0, i32 2
  %83 = load i32, ptr %82, align 8
  %84 = sext i32 %83 to i64
  %85 = getelementptr inbounds %union.ListCell, ptr %81, i64 %84
  br label %87

86:                                               ; preds = %69, %64
  br label %87

87:                                               ; preds = %86, %77
  %88 = phi ptr [ %85, %77 ], [ null, %86 ]
  store ptr %88, ptr %11, align 8
  %89 = load ptr, ptr %12, align 8
  %90 = icmp ne ptr %89, null
  br i1 %90, label %91, label %94

91:                                               ; preds = %87
  %92 = load ptr, ptr %11, align 8
  %93 = icmp ne ptr %92, null
  br label %94

94:                                               ; preds = %91, %87
  %95 = phi i1 [ false, %87 ], [ %93, %91 ]
  br i1 %95, label %97, label %96

96:                                               ; preds = %94
  call void @llvm.lifetime.end.p0(i64 24, ptr %13) #8
  br label %121

97:                                               ; preds = %94
  call void @llvm.lifetime.start.p0(i64 4, ptr %14) #8
  %98 = load ptr, ptr %12, align 8
  %99 = load i32, ptr %98, align 8
  store i32 %99, ptr %14, align 4
  call void @llvm.lifetime.start.p0(i64 8, ptr %15) #8
  %100 = load ptr, ptr %11, align 8
  %101 = load ptr, ptr %100, align 8
  store ptr %101, ptr %15, align 8
  %102 = load ptr, ptr %15, align 8
  %103 = load ptr, ptr %6, align 8
  %104 = load ptr, ptr %6, align 8
  %105 = getelementptr inbounds nuw %struct.ExprState, ptr %104, i32 0, i32 3
  %106 = load ptr, ptr %6, align 8
  %107 = getelementptr inbounds nuw %struct.ExprState, ptr %106, i32 0, i32 2
  call void @ExecInitExprRec(ptr noundef %102, ptr noundef %103, ptr noundef %105, ptr noundef %107)
  %108 = getelementptr inbounds nuw %struct.ExprEvalStep, ptr %9, i32 0, i32 0
  store i64 52, ptr %108, align 8
  %109 = load i32, ptr %14, align 4
  %110 = getelementptr inbounds nuw %struct.ExprEvalStep, ptr %9, i32 0, i32 3
  %111 = getelementptr inbounds nuw %struct.anon.11, ptr %110, i32 0, i32 0
  store i32 %109, ptr %111, align 8
  %112 = load ptr, ptr %15, align 8
  %113 = call i32 @exprType(ptr noundef %112)
  %114 = getelementptr inbounds nuw %struct.ExprEvalStep, ptr %9, i32 0, i32 3
  %115 = getelementptr inbounds nuw %struct.anon.11, ptr %114, i32 0, i32 1
  store i32 %113, ptr %115, align 4
  %116 = load ptr, ptr %6, align 8
  call void @ExprEvalPushStep(ptr noundef %116, ptr noundef %9)
  call void @llvm.lifetime.end.p0(i64 8, ptr %15) #8
  call void @llvm.lifetime.end.p0(i64 4, ptr %14) #8
  br label %117

117:                                              ; preds = %97
  %118 = getelementptr inbounds nuw %struct.ForBothState, ptr %13, i32 0, i32 2
  %119 = load i32, ptr %118, align 8
  %120 = add i32 %119, 1
  store i32 %120, ptr %118, align 8
  br label %42, !llvm.loop !57

121:                                              ; preds = %96
  %122 = load ptr, ptr %5, align 8
  %123 = load ptr, ptr %6, align 8
  %124 = getelementptr inbounds nuw %struct.ExprState, ptr %123, i32 0, i32 11
  %125 = load ptr, ptr %124, align 8
  %126 = call ptr @ExecInitSubPlan(ptr noundef %122, ptr noundef %125)
  store ptr %126, ptr %10, align 8
  %127 = load ptr, ptr %6, align 8
  %128 = getelementptr inbounds nuw %struct.ExprState, ptr %127, i32 0, i32 11
  %129 = load ptr, ptr %128, align 8
  %130 = getelementptr inbounds nuw %struct.PlanState, ptr %129, i32 0, i32 12
  %131 = load ptr, ptr %130, align 8
  %132 = load ptr, ptr %10, align 8
  %133 = call ptr @lappend(ptr noundef %131, ptr noundef %132)
  %134 = load ptr, ptr %6, align 8
  %135 = getelementptr inbounds nuw %struct.ExprState, ptr %134, i32 0, i32 11
  %136 = load ptr, ptr %135, align 8
  %137 = getelementptr inbounds nuw %struct.PlanState, ptr %136, i32 0, i32 12
  store ptr %133, ptr %137, align 8
  %138 = getelementptr inbounds nuw %struct.ExprEvalStep, ptr %9, i32 0, i32 0
  store i64 100, ptr %138, align 8
  %139 = load ptr, ptr %7, align 8
  %140 = getelementptr inbounds nuw %struct.ExprEvalStep, ptr %9, i32 0, i32 1
  store ptr %139, ptr %140, align 8
  %141 = load ptr, ptr %8, align 8
  %142 = getelementptr inbounds nuw %struct.ExprEvalStep, ptr %9, i32 0, i32 2
  store ptr %141, ptr %142, align 8
  %143 = load ptr, ptr %10, align 8
  %144 = getelementptr inbounds nuw %struct.ExprEvalStep, ptr %9, i32 0, i32 3
  %145 = getelementptr inbounds nuw %struct.anon.39, ptr %144, i32 0, i32 0
  store ptr %143, ptr %145, align 8
  %146 = load ptr, ptr %6, align 8
  call void @ExprEvalPushStep(ptr noundef %146, ptr noundef %9)
  call void @llvm.lifetime.end.p0(i64 8, ptr %12) #8
  call void @llvm.lifetime.end.p0(i64 8, ptr %11) #8
  call void @llvm.lifetime.end.p0(i64 8, ptr %10) #8
  call void @llvm.lifetime.end.p0(i64 64, ptr %9) #8
  ret void
}