; Function Attrs: nounwind uwtable
define internal fastcc void @ExecInitSubPlanExpr(ptr noundef %0, ptr noundef %1, ptr noundef %2, ptr noundef %3) unnamed_addr #0 {
  %5 = getelementptr inbounds nuw i8, ptr %1, i64 64
  %6 = load ptr, ptr %5, align 8
  %.not = icmp eq ptr %6, null
  br i1 %.not, label %7, label %10

7:                                                ; preds = %4
  %8 = tail call zeroext i1 @errstart_cold(i32 noundef 21, ptr noundef null) #11
  tail call void @llvm.assume(i1 %8)
  %9 = tail call i32 (ptr, ...) @errmsg_internal(ptr noundef nonnull @.str.27) #10
  tail call void @errfinish(ptr noundef nonnull @.str.1, i32 noundef 2823, ptr noundef nonnull @__func__.ExecInitSubPlanExpr) #10
  unreachable

10:                                               ; preds = %4
  %11 = getelementptr inbounds nuw i8, ptr %0, i64 64
  %12 = load ptr, ptr %11, align 8
  %13 = getelementptr inbounds nuw i8, ptr %0, i64 72
  %14 = load ptr, ptr %13, align 8
  %15 = getelementptr inbounds nuw i8, ptr %14, i64 4
  %.not33 = icmp eq ptr %12, null
  %.not34 = icmp eq ptr %14, null
  %16 = getelementptr inbounds nuw i8, ptr %12, i64 4
  %17 = getelementptr inbounds nuw i8, ptr %12, i64 16
  %18 = getelementptr inbounds nuw i8, ptr %14, i64 16
  %19 = getelementptr inbounds nuw i8, ptr %1, i64 8
  %20 = getelementptr inbounds nuw i8, ptr %1, i64 5
  %21 = getelementptr inbounds nuw i8, ptr %1, i64 60
  %22 = getelementptr inbounds nuw i8, ptr %1, i64 56
  %.phi.trans.insert.i36 = getelementptr inbounds nuw i8, ptr %1, i64 24
  br i1 %.not34, label %.thread, label %.split

.split:                                           ; preds = %10, %ExprEvalPushStep.exit38
  %indvars.iv = phi i64 [ %indvars.iv.next, %ExprEvalPushStep.exit38 ], [ 0, %10 ]
  br i1 %.not33, label %30, label %23

23:                                               ; preds = %.split
  %24 = load i32, ptr %16, align 4
  %25 = sext i32 %24 to i64
  %26 = icmp slt i64 %indvars.iv, %25
  br i1 %26, label %27, label %30

27:                                               ; preds = %23
  %28 = load ptr, ptr %17, align 8
  %29 = getelementptr inbounds nuw %union.ListCell, ptr %28, i64 %indvars.iv
  br label %30

30:                                               ; preds = %.split, %23, %27
  %31 = phi ptr [ %29, %27 ], [ null, %23 ], [ null, %.split ]
  %32 = load i32, ptr %15, align 4
  %33 = sext i32 %32 to i64
  %34 = icmp slt i64 %indvars.iv, %33
  br i1 %34, label %35, label %.thread.loopexit

35:                                               ; preds = %30
  %36 = load ptr, ptr %18, align 8
  %37 = icmp ne ptr %31, null
  %38 = icmp ne ptr %36, null
  %39 = select i1 %37, i1 %38, i1 false
  br i1 %39, label %66, label %.thread.loopexit

.thread.loopexit:                                 ; preds = %30, %35
  %.pre = load ptr, ptr %5, align 8
  br label %.thread

.thread:                                          ; preds = %10, %.thread.loopexit
  %40 = phi ptr [ %.pre, %.thread.loopexit ], [ %6, %10 ]
  %41 = tail call ptr @ExecInitSubPlan(ptr noundef %0, ptr noundef %40) #10
  %42 = load ptr, ptr %5, align 8
  %43 = getelementptr inbounds nuw i8, ptr %42, i64 96
  %44 = load ptr, ptr %43, align 8
  %45 = tail call ptr @lappend(ptr noundef %44, ptr noundef %41) #10
  %46 = load ptr, ptr %5, align 8
  %47 = getelementptr inbounds nuw i8, ptr %46, i64 96
  store ptr %45, ptr %47, align 8
  %48 = load i32, ptr %21, align 4
  %49 = icmp eq i32 %48, 0
  br i1 %49, label %50, label %52

50:                                               ; preds = %.thread
  store i32 16, ptr %21, align 4
  %51 = tail call ptr @palloc(i64 noundef 1024) #10
  store ptr %51, ptr %.phi.trans.insert.i36, align 8
  br label %ExprEvalPushStep.exit

52:                                               ; preds = %.thread
  %53 = load i32, ptr %22, align 8
  %54 = icmp eq i32 %48, %53
  br i1 %54, label %55, label %._crit_edge.i

._crit_edge.i:                                    ; preds = %52
  %.pre.i = load ptr, ptr %.phi.trans.insert.i36, align 8
  br label %ExprEvalPushStep.exit

55:                                               ; preds = %52
  %56 = shl i32 %48, 1
  store i32 %56, ptr %21, align 4
  %57 = load ptr, ptr %.phi.trans.insert.i36, align 8
  %58 = sext i32 %56 to i64
  %59 = shl nsw i64 %58, 6
  %60 = tail call ptr @repalloc(ptr noundef %57, i64 noundef %59) #10
  store ptr %60, ptr %.phi.trans.insert.i36, align 8
  br label %ExprEvalPushStep.exit

ExprEvalPushStep.exit:                            ; preds = %50, %._crit_edge.i, %55
  %61 = phi ptr [ %.pre.i, %._crit_edge.i ], [ %60, %55 ], [ %51, %50 ]
  %62 = load i32, ptr %22, align 8
  %63 = add i32 %62, 1
  store i32 %63, ptr %22, align 8
  %64 = sext i32 %62 to i64
  %65 = getelementptr inbounds %struct.ExprEvalStep, ptr %61, i64 %64
  store i64 100, ptr %65, align 8
  %.sroa.7.0..sroa_idx = getelementptr inbounds nuw i8, ptr %65, i64 8
  store ptr %2, ptr %.sroa.7.0..sroa_idx, align 8
  %.sroa.8.0..sroa_idx = getelementptr inbounds nuw i8, ptr %65, i64 16
  store ptr %3, ptr %.sroa.8.0..sroa_idx, align 8
  %.sroa.9.0..sroa_idx = getelementptr inbounds nuw i8, ptr %65, i64 24
  store ptr %41, ptr %.sroa.9.0..sroa_idx, align 8
  %.sroa.12.0..sroa_idx = getelementptr inbounds nuw i8, ptr %65, i64 32
  tail call void @llvm.memset.p0.i64(ptr noundef nonnull align 8 dereferenceable(32) %.sroa.12.0..sroa_idx, i8 0, i64 32, i1 false)
  ret void

66:                                               ; preds = %35
  %67 = getelementptr inbounds nuw %union.ListCell, ptr %36, i64 %indvars.iv
  %68 = load i32, ptr %31, align 8
  %69 = load ptr, ptr %67, align 8
  tail call fastcc void @ExecInitExprRec(ptr noundef %69, ptr noundef nonnull %1, ptr noundef nonnull %19, ptr noundef nonnull %20)
  %.sroa.9.0.insert.ext = zext i32 %68 to i64
  %70 = tail call i32 @exprType(ptr noundef %69) #10
  %.sroa.9.4.insert.ext = zext i32 %70 to i64
  %.sroa.9.4.insert.shift = shl nuw i64 %.sroa.9.4.insert.ext, 32
  %.sroa.9.4.insert.insert = or disjoint i64 %.sroa.9.4.insert.shift, %.sroa.9.0.insert.ext
  %71 = inttoptr i64 %.sroa.9.4.insert.insert to ptr
  %72 = load i32, ptr %21, align 4
  %73 = icmp eq i32 %72, 0
  br i1 %73, label %74, label %76

74:                                               ; preds = %66
  store i32 16, ptr %21, align 4
  %75 = tail call ptr @palloc(i64 noundef 1024) #10
  store ptr %75, ptr %.phi.trans.insert.i36, align 8
  br label %ExprEvalPushStep.exit38

76:                                               ; preds = %66
  %77 = load i32, ptr %22, align 8
  %78 = icmp eq i32 %72, %77
  br i1 %78, label %79, label %._crit_edge.i35

._crit_edge.i35:                                  ; preds = %76
  %.pre.i37 = load ptr, ptr %.phi.trans.insert.i36, align 8
  br label %ExprEvalPushStep.exit38

79:                                               ; preds = %76
  %80 = shl i32 %72, 1
  store i32 %80, ptr %21, align 4
  %81 = load ptr, ptr %.phi.trans.insert.i36, align 8
  %82 = sext i32 %80 to i64
  %83 = shl nsw i64 %82, 6
  %84 = tail call ptr @repalloc(ptr noundef %81, i64 noundef %83) #10
  store ptr %84, ptr %.phi.trans.insert.i36, align 8
  br label %ExprEvalPushStep.exit38

ExprEvalPushStep.exit38:                          ; preds = %74, %._crit_edge.i35, %79
  %85 = phi ptr [ %.pre.i37, %._crit_edge.i35 ], [ %84, %79 ], [ %75, %74 ]
  %86 = load i32, ptr %22, align 8
  %87 = add i32 %86, 1
  store i32 %87, ptr %22, align 8
  %88 = sext i32 %86 to i64
  %89 = getelementptr inbounds %struct.ExprEvalStep, ptr %85, i64 %88
  store i64 52, ptr %89, align 8
  %.sroa.7.0..sroa_idx40 = getelementptr inbounds nuw i8, ptr %89, i64 8
  %.sroa.9.0..sroa_idx44 = getelementptr inbounds nuw i8, ptr %89, i64 24
  tail call void @llvm.memset.p0.i64(ptr noundef nonnull align 8 dereferenceable(16) %.sroa.7.0..sroa_idx40, i8 0, i64 16, i1 false)
  store ptr %71, ptr %.sroa.9.0..sroa_idx44, align 8
  %.sroa.12.0..sroa_idx46 = getelementptr inbounds nuw i8, ptr %89, i64 32
  tail call void @llvm.memset.p0.i64(ptr noundef nonnull align 8 dereferenceable(32) %.sroa.12.0..sroa_idx46, i8 0, i64 32, i1 false)
  %indvars.iv.next = add nuw nsw i64 %indvars.iv, 1
  br label %.split, !llvm.loop !24
}